; Function Attrs: mustprogress uwtable
define noundef zeroext i1 @_ZNK4GURL8DomainIsEN4base16BasicStringPieceINSt7__cxx1112basic_stringIcSt11char_traitsIcESaIcEEEEE(ptr noundef nonnull readonly align 8 captures(none) dereferenceable(120) %0, ptr %1, i64 %2) local_unnamed_addr #0 align 2 {
  %4 = alloca %"class.base::BasicStringPiece", align 8
  %5 = alloca %"class.base::BasicStringPiece", align 8
  %6 = getelementptr inbounds nuw i8, ptr %0, i64 32
  %7 = load i8, ptr %6, align 8, !tbaa !13, !range !30, !noundef !31
  %8 = trunc nuw i8 %7 to i1
  br i1 %8, label %9, label %39

9:                                                ; preds = %3
  %10 = tail call noundef i64 @strlen(ptr noundef nonnull dereferenceable(1) @_ZN3url17kFileSystemSchemeE) #17
  call void @llvm.lifetime.start.p0(i64 16, ptr nonnull %4)
  store ptr @_ZN3url17kFileSystemSchemeE, ptr %4, align 8
  %11 = getelementptr inbounds nuw i8, ptr %4, i64 8
  store i64 %10, ptr %11, align 8
  %12 = getelementptr inbounds nuw i8, ptr %0, i64 44
  %13 = load i32, ptr %12, align 4, !tbaa !33
  %14 = icmp slt i32 %13, 1
  br i1 %14, label %15, label %_ZNK4GURL18SchemeIsFileSystemEv.exit

15:                                               ; preds = %9
  %16 = icmp eq i64 %10, 0
  call void @llvm.lifetime.end.p0(i64 16, ptr nonnull %4)
  br i1 %16, label %24, label %29

_ZNK4GURL18SchemeIsFileSystemEv.exit:             ; preds = %9
  call void @llvm.lifetime.start.p0(i64 16, ptr nonnull %5) #17
  %17 = getelementptr inbounds nuw i8, ptr %0, i64 40
  %18 = load i32, ptr %17, align 8
  %19 = sext i32 %18 to i64
  %20 = load ptr, ptr %0, align 8
  %21 = getelementptr inbounds nuw i8, ptr %20, i64 %19
  %.sroa.3.0.i.i.i.i = zext nneg i32 %13 to i64
  store ptr %21, ptr %5, align 8
  %22 = getelementptr inbounds nuw i8, ptr %5, i64 8
  store i64 %.sroa.3.0.i.i.i.i, ptr %22, align 8
  %23 = call noundef zeroext i1 @_ZN4baseeqERKNS_16BasicStringPieceINSt7__cxx1112basic_stringIcSt11char_traitsIcESaIcEEEEES9_(ptr noundef nonnull align 8 dereferenceable(16) %5, ptr noundef nonnull align 8 dereferenceable(16) %4)
  call void @llvm.lifetime.end.p0(i64 16, ptr nonnull %5) #17
  call void @llvm.lifetime.end.p0(i64 16, ptr nonnull %4)
  br i1 %23, label %24, label %29

24:                                               ; preds = %15, %_ZNK4GURL18SchemeIsFileSystemEv.exit
  %25 = getelementptr inbounds nuw i8, ptr %0, i64 112
  %26 = load ptr, ptr %25, align 8, !tbaa !32
  %.not = icmp eq ptr %26, null
  br i1 %.not, label %29, label %27

27:                                               ; preds = %24
  %28 = call noundef zeroext i1 @_ZNK4GURL8DomainIsEN4base16BasicStringPieceINSt7__cxx1112basic_stringIcSt11char_traitsIcESaIcEEEEE(ptr noundef nonnull align 8 dereferenceable(120) %26, ptr %1, i64 %2)
  br label %39

29:                                               ; preds = %15, %24, %_ZNK4GURL18SchemeIsFileSystemEv.exit
  %30 = getelementptr inbounds nuw i8, ptr %0, i64 64
  %31 = getelementptr inbounds nuw i8, ptr %0, i64 68
  %32 = load i32, ptr %31, align 4, !tbaa !53
  %33 = icmp slt i32 %32, 1
  %34 = load i32, ptr %30, align 8
  %35 = sext i32 %34 to i64
  %36 = load ptr, ptr %0, align 8
  %37 = getelementptr inbounds nuw i8, ptr %36, i64 %35
  %.sroa.0.0.i.i = select i1 %33, ptr null, ptr %37
  %narrow.i.i = select i1 %33, i32 0, i32 %32
  %.sroa.3.0.i.i = zext i32 %narrow.i.i to i64
  %38 = call noundef zeroext i1 @_ZN3url8DomainIsEN4base16BasicStringPieceINSt7__cxx1112basic_stringIcSt11char_traitsIcESaIcEEEEES8_(ptr %.sroa.0.0.i.i, i64 %.sroa.3.0.i.i, ptr %1, i64 %2)
  br label %39

39:                                               ; preds = %3, %29, %27
  %.0 = phi i1 [ %28, %27 ], [ %38, %29 ], [ false, %3 ]
  ret i1 %.0
}